; Function Attrs: mustprogress nofree norecurse nosync nounwind willreturn memory(argmem: write) uwtable
define void @_ZN6casadi14SundialsMemoryC2Ev(ptr noundef nonnull align 8 dereferenceable(524) %0) unnamed_addr #9 align 2 personality ptr @__gxx_personality_v0 {
  %2 = getelementptr inbounds i8, ptr %0, i64 8
  store i32 0, ptr %2, align 8
  %3 = getelementptr inbounds i8, ptr %0, i64 16
  store ptr null, ptr %3, align 8
  %4 = getelementptr inbounds i8, ptr %0, i64 24
  store ptr %2, ptr %4, align 8
  %5 = getelementptr inbounds i8, ptr %0, i64 32
  store ptr %2, ptr %5, align 8
  %6 = getelementptr inbounds i8, ptr %0, i64 40
  store i64 0, ptr %6, align 8
  %7 = getelementptr inbounds i8, ptr %0, i64 88
  tail call void @llvm.memset.p0.i64(ptr noundef nonnull align 8 dereferenceable(24) %7, i8 0, i64 24, i1 false)
  %8 = getelementptr inbounds i8, ptr %0, i64 144
  store ptr null, ptr %8, align 8
  %9 = getelementptr inbounds i8, ptr %0, i64 160
  %10 = getelementptr inbounds i8, ptr %0, i64 184
  store ptr null, ptr %10, align 8
  %11 = getelementptr inbounds i8, ptr %0, i64 192
  tail call void @llvm.memset.p0.i64(ptr noundef nonnull align 8 dereferenceable(16) %9, i8 0, i64 16, i1 false)
  store i8 1, ptr %11, align 8
  %12 = getelementptr inbounds i8, ptr %0, i64 512
  store ptr null, ptr %12, align 8
  %13 = getelementptr inbounds i8, ptr %0, i64 520
  store i32 -1, ptr %13, align 8
  ret void
}